target datalayout = "e-m:e-p270:32:32-p271:32:32-p272:64:64-i64:64-i128:128-f80:128-n8:16:32:64-S128"
target triple = "x86_64-pc-linux-gnu"

%struct.AVCodecContext = type { ptr, i32, i32, ptr, i32, i32, ptr, ptr, ptr, i64, i32, i32, ptr, i32, %struct.AVRational, %struct.AVRational, %struct.AVRational, i32, i32, i32, i32, i32, %struct.AVRational, i32, i32, i32, i32, i32, i32, i32, i32, i32, i32, i32, ptr, ptr, i32, float, float, float, float, float, float, float, float, float, i32, i32, i32, i32, i32, i32, i32, i32, i32, i32, i32, i32, ptr, ptr, ptr, i32, i32, i32, i32, i32, i32, i32, i32, i32, i32, %struct.AVChannelLayout, i32, i32, i32, i32, i32, i32, i32, i32, ptr, i32, i32, i32, float, float, i32, i32, i32, i32, i32, ptr, i64, i64, float, float, i32, i32, ptr, ptr, i32, i32, i32, i32, i32, ptr, ptr, ptr, ptr, i32, i32, [8 x i64], i32, i32, i32, i32, i32, i32, i32, ptr, ptr, i32, i32, i32, i32, i32, i32, i32, i32, i32, i32, ptr, ptr, i32, i32, ptr, ptr, ptr, ptr, i32, i32, i64, i32, i32, i64, ptr, i64, ptr, i32, ptr, i32 }
%struct.AVRational = type { i32, i32 }
%struct.AVChannelLayout = type { i32, i32, %union.anon.0, ptr }
%union.anon.0 = type { i64 }
%struct.CDXLVideoContext = type { ptr, i32, i32, i32, i32, ptr, i32, ptr, i32, ptr, i32 }
%struct.AVFrame = type { [8 x ptr], [8 x i32], ptr, i32, i32, i32, i32, i32, %struct.AVRational, i64, i64, %struct.AVRational, i32, ptr, i32, i32, [8 x ptr], ptr, i32, ptr, i32, i32, i32, i32, i32, i32, i32, i64, ptr, i32, ptr, ptr, i64, i64, i64, i64, ptr, %struct.AVChannelLayout, i64 }

; Function Attrs: alwaysinline nounwind willreturn memory(none) uwtable
define internal zeroext i16 @av_bswap16(i16 noundef zeroext %0) #3 {
  %2 = alloca i16, align 2
  store i16 %0, ptr %2, align 2, !tbaa !57
  %3 = load i16, ptr %2, align 2, !tbaa !57
  %4 = zext i16 %3 to i32
  %5 = ashr i32 %4, 8
  %6 = load i16, ptr %2, align 2, !tbaa !57
  %7 = zext i16 %6 to i32
  %8 = shl i32 %7, 8
  %9 = or i32 %5, %8
  %10 = trunc i32 %9 to i16
  store i16 %10, ptr %2, align 2, !tbaa !57
  %11 = load i16, ptr %2, align 2, !tbaa !57
  ret i16 %11
}

; Function Attrs: nounwind uwtable
define internal void @import_palette(ptr noundef %0, ptr noundef %1) #1 {
  %3 = alloca ptr, align 8
  %4 = alloca ptr, align 8
  %5 = alloca i32, align 4
  %6 = alloca i32, align 4
  %7 = alloca i32, align 4
  %8 = alloca i32, align 4
  %9 = alloca i32, align 4
  %10 = alloca i32, align 4
  %11 = alloca i32, align 4
  store ptr %0, ptr %3, align 8, !tbaa !29
  store ptr %1, ptr %4, align 8, !tbaa !36
  %12 = load ptr, ptr %3, align 8, !tbaa !29
  %13 = getelementptr inbounds nuw %struct.CDXLVideoContext, ptr %12, i32 0, i32 2
  %14 = load i32, ptr %13, align 4, !tbaa !45
  %15 = icmp eq i32 %14, 1
  br i1 %15, label %16, label %63

16:                                               ; preds = %2
  call void @llvm.lifetime.start.p0(i64 4, ptr %5) #10
  store i32 0, ptr %5, align 4, !tbaa !41
  br label %17

17:                                               ; preds = %59, %16
  %18 = load i32, ptr %5, align 4, !tbaa !41
  %19 = load ptr, ptr %3, align 8, !tbaa !29
  %20 = getelementptr inbounds nuw %struct.CDXLVideoContext, ptr %19, i32 0, i32 6
  %21 = load i32, ptr %20, align 8, !tbaa !48
  %22 = sdiv i32 %21, 2
  %23 = icmp slt i32 %18, %22
  br i1 %23, label %25, label %24

24:                                               ; preds = %17
  call void @llvm.lifetime.end.p0(i64 4, ptr %5) #10
  br label %62

25:                                               ; preds = %17
  call void @llvm.lifetime.start.p0(i64 4, ptr %6) #10
  %26 = load ptr, ptr %3, align 8, !tbaa !29
  %27 = getelementptr inbounds nuw %struct.CDXLVideoContext, ptr %26, i32 0, i32 5
  %28 = load ptr, ptr %27, align 8, !tbaa !49
  %29 = load i32, ptr %5, align 4, !tbaa !41
  %30 = mul nsw i32 %29, 2
  %31 = sext i32 %30 to i64
  %32 = getelementptr inbounds i8, ptr %28, i64 %31
  %33 = load i16, ptr %32, align 1, !tbaa !44
  %34 = call zeroext i16 @av_bswap16(i16 noundef zeroext %33) #11
  %35 = zext i16 %34 to i32
  store i32 %35, ptr %6, align 4, !tbaa !41
  call void @llvm.lifetime.start.p0(i64 4, ptr %7) #10
  %36 = load i32, ptr %6, align 4, !tbaa !41
  %37 = lshr i32 %36, 8
  %38 = and i32 %37, 15
  %39 = mul i32 %38, 17
  store i32 %39, ptr %7, align 4, !tbaa !41
  call void @llvm.lifetime.start.p0(i64 4, ptr %8) #10
  %40 = load i32, ptr %6, align 4, !tbaa !41
  %41 = lshr i32 %40, 4
  %42 = and i32 %41, 15
  %43 = mul i32 %42, 17
  store i32 %43, ptr %8, align 4, !tbaa !41
  call void @llvm.lifetime.start.p0(i64 4, ptr %9) #10
  %44 = load i32, ptr %6, align 4, !tbaa !41
  %45 = and i32 %44, 15
  %46 = mul i32 %45, 17
  store i32 %46, ptr %9, align 4, !tbaa !41
  %47 = load i32, ptr %7, align 4, !tbaa !41
  %48 = shl i32 %47, 16
  %49 = or i32 -16777216, %48
  %50 = load i32, ptr %8, align 4, !tbaa !41
  %51 = shl i32 %50, 8
  %52 = or i32 %49, %51
  %53 = load i32, ptr %9, align 4, !tbaa !41
  %54 = or i32 %52, %53
  %55 = load ptr, ptr %4, align 8, !tbaa !36
  %56 = load i32, ptr %5, align 4, !tbaa !41
  %57 = sext i32 %56 to i64
  %58 = getelementptr inbounds i32, ptr %55, i64 %57
  store i32 %54, ptr %58, align 1, !tbaa !44
  call void @llvm.lifetime.end.p0(i64 4, ptr %9) #10
  call void @llvm.lifetime.end.p0(i64 4, ptr %8) #10
  call void @llvm.lifetime.end.p0(i64 4, ptr %7) #10
  call void @llvm.lifetime.end.p0(i64 4, ptr %6) #10
  br label %59

59:                                               ; preds = %25
  %60 = load i32, ptr %5, align 4, !tbaa !41
  %61 = add nsw i32 %60, 1
  store i32 %61, ptr %5, align 4, !tbaa !41
  br label %17, !llvm.loop !64

62:                                               ; preds = %24
  br label %117

63:                                               ; preds = %2
  call void @llvm.lifetime.start.p0(i64 4, ptr %10) #10
  store i32 0, ptr %10, align 4, !tbaa !41
  br label %64

64:                                               ; preds = %113, %63
  %65 = load i32, ptr %10, align 4, !tbaa !41
  %66 = load ptr, ptr %3, align 8, !tbaa !29
  %67 = getelementptr inbounds nuw %struct.CDXLVideoContext, ptr %66, i32 0, i32 6
  %68 = load i32, ptr %67, align 8, !tbaa !48
  %69 = sdiv i32 %68, 3
  %70 = icmp slt i32 %65, %69
  br i1 %70, label %72, label %71

71:                                               ; preds = %64
  call void @llvm.lifetime.end.p0(i64 4, ptr %10) #10
  br label %116

72:                                               ; preds = %64
  call void @llvm.lifetime.start.p0(i64 4, ptr %11) #10
  %73 = load ptr, ptr %3, align 8, !tbaa !29
  %74 = getelementptr inbounds nuw %struct.CDXLVideoContext, ptr %73, i32 0, i32 5
  %75 = load ptr, ptr %74, align 8, !tbaa !49
  %76 = load i32, ptr %10, align 4, !tbaa !41
  %77 = mul nsw i32 %76, 3
  %78 = sext i32 %77 to i64
  %79 = getelementptr inbounds i8, ptr %75, i64 %78
  %80 = getelementptr inbounds i8, ptr %79, i64 0
  %81 = load i8, ptr %80, align 1, !tbaa !44
  %82 = zext i8 %81 to i32
  %83 = shl i32 %82, 16
  %84 = load ptr, ptr %3, align 8, !tbaa !29
  %85 = getelementptr inbounds nuw %struct.CDXLVideoContext, ptr %84, i32 0, i32 5
  %86 = load ptr, ptr %85, align 8, !tbaa !49
  %87 = load i32, ptr %10, align 4, !tbaa !41
  %88 = mul nsw i32 %87, 3
  %89 = sext i32 %88 to i64
  %90 = getelementptr inbounds i8, ptr %86, i64 %89
  %91 = getelementptr inbounds i8, ptr %90, i64 1
  %92 = load i8, ptr %91, align 1, !tbaa !44
  %93 = zext i8 %92 to i32
  %94 = shl i32 %93, 8
  %95 = or i32 %83, %94
  %96 = load ptr, ptr %3, align 8, !tbaa !29
  %97 = getelementptr inbounds nuw %struct.CDXLVideoContext, ptr %96, i32 0, i32 5
  %98 = load ptr, ptr %97, align 8, !tbaa !49
  %99 = load i32, ptr %10, align 4, !tbaa !41
  %100 = mul nsw i32 %99, 3
  %101 = sext i32 %100 to i64
  %102 = getelementptr inbounds i8, ptr %98, i64 %101
  %103 = getelementptr inbounds i8, ptr %102, i64 2
  %104 = load i8, ptr %103, align 1, !tbaa !44
  %105 = zext i8 %104 to i32
  %106 = or i32 %95, %105
  store i32 %106, ptr %11, align 4, !tbaa !41
  %107 = load i32, ptr %11, align 4, !tbaa !41
  %108 = or i32 -16777216, %107
  %109 = load ptr, ptr %4, align 8, !tbaa !36
  %110 = load i32, ptr %10, align 4, !tbaa !41
  %111 = sext i32 %110 to i64
  %112 = getelementptr inbounds i32, ptr %109, i64 %111
  store i32 %108, ptr %112, align 1, !tbaa !44
  call void @llvm.lifetime.end.p0(i64 4, ptr %11) #10
  br label %113

113:                                              ; preds = %72
  %114 = load i32, ptr %10, align 4, !tbaa !41
  %115 = add nsw i32 %114, 1
  store i32 %115, ptr %10, align 4, !tbaa !41
  br label %64, !llvm.loop !65

116:                                              ; preds = %71
  br label %117

117:                                              ; preds = %116, %62
  ret void
}

; Function Attrs: nounwind uwtable
define internal void @cdxl_decode_ham6(ptr noundef %0, ptr noundef %1) #1 {
  %3 = alloca ptr, align 8
  %4 = alloca ptr, align 8
  %5 = alloca ptr, align 8
  %6 = alloca [16 x i32], align 16
  %7 = alloca i32, align 4
  %8 = alloca i32, align 4
  %9 = alloca i32, align 4
  %10 = alloca ptr, align 8
  %11 = alloca ptr, align 8
  %12 = alloca i8, align 1
  %13 = alloca i8, align 1
  %14 = alloca i32, align 4
  %15 = alloca i32, align 4
  store ptr %0, ptr %3, align 8, !tbaa !29
  store ptr %1, ptr %4, align 8, !tbaa !34
  call void @llvm.lifetime.start.p0(i64 8, ptr %5) #10
  %16 = load ptr, ptr %3, align 8, !tbaa !29
  %17 = getelementptr inbounds nuw %struct.CDXLVideoContext, ptr %16, i32 0, i32 0
  %18 = load ptr, ptr %17, align 8, !tbaa !33
  store ptr %18, ptr %5, align 8, !tbaa !4
  call void @llvm.lifetime.start.p0(i64 64, ptr %6) #10
  call void @llvm.lifetime.start.p0(i64 4, ptr %7) #10
  call void @llvm.lifetime.start.p0(i64 4, ptr %8) #10
  call void @llvm.lifetime.start.p0(i64 4, ptr %9) #10
  call void @llvm.lifetime.start.p0(i64 8, ptr %10) #10
  call void @llvm.lifetime.start.p0(i64 8, ptr %11) #10
  call void @llvm.lifetime.start.p0(i64 1, ptr %12) #10
  call void @llvm.lifetime.start.p0(i64 1, ptr %13) #10
  call void @llvm.lifetime.start.p0(i64 4, ptr %14) #10
  call void @llvm.lifetime.start.p0(i64 4, ptr %15) #10
  %19 = load ptr, ptr %3, align 8, !tbaa !29
  %20 = getelementptr inbounds nuw %struct.CDXLVideoContext, ptr %19, i32 0, i32 9
  %21 = load ptr, ptr %20, align 8, !tbaa !56
  store ptr %21, ptr %10, align 8, !tbaa !43
  %22 = load ptr, ptr %4, align 8, !tbaa !34
  %23 = getelementptr inbounds nuw %struct.AVFrame, ptr %22, i32 0, i32 0
  %24 = getelementptr inbounds [8 x ptr], ptr %23, i64 0, i64 0
  %25 = load ptr, ptr %24, align 8, !tbaa !43
  store ptr %25, ptr %11, align 8, !tbaa !43
  %26 = load ptr, ptr %3, align 8, !tbaa !29
  %27 = getelementptr inbounds [16 x i32], ptr %6, i64 0, i64 0
  call void @import_palette(ptr noundef %26, ptr noundef %27)
  %28 = load ptr, ptr %3, align 8, !tbaa !29
  %29 = load ptr, ptr %5, align 8, !tbaa !4
  %30 = getelementptr inbounds nuw %struct.AVCodecContext, ptr %29, i32 0, i32 18
  %31 = load i32, ptr %30, align 8, !tbaa !52
  %32 = sext i32 %31 to i64
  %33 = load ptr, ptr %3, align 8, !tbaa !29
  %34 = getelementptr inbounds nuw %struct.CDXLVideoContext, ptr %33, i32 0, i32 9
  %35 = load ptr, ptr %34, align 8, !tbaa !56
  call void @import_format(ptr noundef %28, i64 noundef %32, ptr noundef %35)
  store i32 0, ptr %15, align 4, !tbaa !41
  br label %36

36:                                               ; preds = %155, %2
  %37 = load i32, ptr %15, align 4, !tbaa !41
  %38 = load ptr, ptr %5, align 8, !tbaa !4
  %39 = getelementptr inbounds nuw %struct.AVCodecContext, ptr %38, i32 0, i32 19
  %40 = load i32, ptr %39, align 4, !tbaa !54
  %41 = icmp slt i32 %37, %40
  br i1 %41, label %42, label %158

42:                                               ; preds = %36
  %43 = getelementptr inbounds [16 x i32], ptr %6, i64 0, i64 0
  %44 = load i32, ptr %43, align 16, !tbaa !41
  %45 = and i32 %44, 16711680
  store i32 %45, ptr %7, align 4, !tbaa !41
  %46 = getelementptr inbounds [16 x i32], ptr %6, i64 0, i64 0
  %47 = load i32, ptr %46, align 16, !tbaa !41
  %48 = and i32 %47, 65280
  store i32 %48, ptr %8, align 4, !tbaa !41
  %49 = getelementptr inbounds [16 x i32], ptr %6, i64 0, i64 0
  %50 = load i32, ptr %49, align 16, !tbaa !41
  %51 = and i32 %50, 255
  store i32 %51, ptr %9, align 4, !tbaa !41
  store i32 0, ptr %14, align 4, !tbaa !41
  br label %52

52:                                               ; preds = %144, %42
  %53 = load i32, ptr %14, align 4, !tbaa !41
  %54 = load ptr, ptr %5, align 8, !tbaa !4
  %55 = getelementptr inbounds nuw %struct.AVCodecContext, ptr %54, i32 0, i32 18
  %56 = load i32, ptr %55, align 8, !tbaa !52
  %57 = icmp slt i32 %53, %56
  br i1 %57, label %58, label %147

58:                                               ; preds = %52
  %59 = load ptr, ptr %10, align 8, !tbaa !43
  %60 = getelementptr inbounds nuw i8, ptr %59, i32 1
  store ptr %60, ptr %10, align 8, !tbaa !43
  %61 = load i8, ptr %59, align 1, !tbaa !44
  store i8 %61, ptr %12, align 1, !tbaa !44
  %62 = load i8, ptr %12, align 1, !tbaa !44
  %63 = zext i8 %62 to i32
  %64 = ashr i32 %63, 4
  %65 = trunc i32 %64 to i8
  store i8 %65, ptr %13, align 1, !tbaa !44
  %66 = load i8, ptr %12, align 1, !tbaa !44
  %67 = zext i8 %66 to i32
  %68 = and i32 %67, 15
  %69 = trunc i32 %68 to i8
  store i8 %69, ptr %12, align 1, !tbaa !44
  %70 = load i8, ptr %13, align 1, !tbaa !44
  %71 = zext i8 %70 to i32
  switch i32 %71, label %102 [
    i32 0, label %72
    i32 1, label %88
    i32 2, label %92
    i32 3, label %97
  ]

72:                                               ; preds = %58
  %73 = load i8, ptr %12, align 1, !tbaa !44
  %74 = zext i8 %73 to i64
  %75 = getelementptr inbounds nuw [16 x i32], ptr %6, i64 0, i64 %74
  %76 = load i32, ptr %75, align 4, !tbaa !41
  %77 = and i32 %76, 16711680
  store i32 %77, ptr %7, align 4, !tbaa !41
  %78 = load i8, ptr %12, align 1, !tbaa !44
  %79 = zext i8 %78 to i64
  %80 = getelementptr inbounds nuw [16 x i32], ptr %6, i64 0, i64 %79
  %81 = load i32, ptr %80, align 4, !tbaa !41
  %82 = and i32 %81, 65280
  store i32 %82, ptr %8, align 4, !tbaa !41
  %83 = load i8, ptr %12, align 1, !tbaa !44
  %84 = zext i8 %83 to i64
  %85 = getelementptr inbounds nuw [16 x i32], ptr %6, i64 0, i64 %84
  %86 = load i32, ptr %85, align 4, !tbaa !41
  %87 = and i32 %86, 255
  store i32 %87, ptr %9, align 4, !tbaa !41
  br label %102

88:                                               ; preds = %58
  %89 = load i8, ptr %12, align 1, !tbaa !44
  %90 = zext i8 %89 to i32
  %91 = mul nsw i32 %90, 17
  store i32 %91, ptr %9, align 4, !tbaa !41
  br label %102

92:                                               ; preds = %58
  %93 = load i8, ptr %12, align 1, !tbaa !44
  %94 = zext i8 %93 to i32
  %95 = mul nsw i32 %94, 17
  %96 = shl i32 %95, 16
  store i32 %96, ptr %7, align 4, !tbaa !41
  br label %102

97:                                               ; preds = %58
  %98 = load i8, ptr %12, align 1, !tbaa !44
  %99 = zext i8 %98 to i32
  %100 = mul nsw i32 %99, 17
  %101 = shl i32 %100, 8
  store i32 %101, ptr %8, align 4, !tbaa !41
  br label %102

102:                                              ; preds = %58, %97, %92, %88, %72
  br label %103

103:                                              ; preds = %102
  %104 = load i32, ptr %7, align 4, !tbaa !41
  %105 = load i32, ptr %8, align 4, !tbaa !41
  %106 = or i32 %104, %105
  %107 = load i32, ptr %9, align 4, !tbaa !41
  %108 = or i32 %106, %107
  %109 = trunc i32 %108 to i8
  %110 = load ptr, ptr %11, align 8, !tbaa !43
  %111 = load i32, ptr %14, align 4, !tbaa !41
  %112 = mul nsw i32 %111, 3
  %113 = sext i32 %112 to i64
  %114 = getelementptr inbounds i8, ptr %110, i64 %113
  %115 = getelementptr inbounds i8, ptr %114, i64 0
  store i8 %109, ptr %115, align 1, !tbaa !44
  %116 = load i32, ptr %7, align 4, !tbaa !41
  %117 = load i32, ptr %8, align 4, !tbaa !41
  %118 = or i32 %116, %117
  %119 = load i32, ptr %9, align 4, !tbaa !41
  %120 = or i32 %118, %119
  %121 = lshr i32 %120, 8
  %122 = trunc i32 %121 to i8
  %123 = load ptr, ptr %11, align 8, !tbaa !43
  %124 = load i32, ptr %14, align 4, !tbaa !41
  %125 = mul nsw i32 %124, 3
  %126 = sext i32 %125 to i64
  %127 = getelementptr inbounds i8, ptr %123, i64 %126
  %128 = getelementptr inbounds i8, ptr %127, i64 1
  store i8 %122, ptr %128, align 1, !tbaa !44
  %129 = load i32, ptr %7, align 4, !tbaa !41
  %130 = load i32, ptr %8, align 4, !tbaa !41
  %131 = or i32 %129, %130
  %132 = load i32, ptr %9, align 4, !tbaa !41
  %133 = or i32 %131, %132
  %134 = lshr i32 %133, 16
  %135 = trunc i32 %134 to i8
  %136 = load ptr, ptr %11, align 8, !tbaa !43
  %137 = load i32, ptr %14, align 4, !tbaa !41
  %138 = mul nsw i32 %137, 3
  %139 = sext i32 %138 to i64
  %140 = getelementptr inbounds i8, ptr %136, i64 %139
  %141 = getelementptr inbounds i8, ptr %140, i64 2
  store i8 %135, ptr %141, align 1, !tbaa !44
  br label %142

142:                                              ; preds = %103
  br label %143

143:                                              ; preds = %142
  br label %144

144:                                              ; preds = %143
  %145 = load i32, ptr %14, align 4, !tbaa !41
  %146 = add nsw i32 %145, 1
  store i32 %146, ptr %14, align 4, !tbaa !41
  br label %52, !llvm.loop !62

147:                                              ; preds = %52
  %148 = load ptr, ptr %4, align 8, !tbaa !34
  %149 = getelementptr inbounds nuw %struct.AVFrame, ptr %148, i32 0, i32 1
  %150 = getelementptr inbounds [8 x i32], ptr %149, i64 0, i64 0
  %151 = load i32, ptr %150, align 8, !tbaa !41
  %152 = load ptr, ptr %11, align 8, !tbaa !43
  %153 = sext i32 %151 to i64
  %154 = getelementptr inbounds i8, ptr %152, i64 %153
  store ptr %154, ptr %11, align 8, !tbaa !43
  br label %155

155:                                              ; preds = %147
  %156 = load i32, ptr %15, align 4, !tbaa !41
  %157 = add nsw i32 %156, 1
  store i32 %157, ptr %15, align 4, !tbaa !41
  br label %36, !llvm.loop !63

158:                                              ; preds = %36
  call void @llvm.lifetime.end.p0(i64 4, ptr %15) #10
  call void @llvm.lifetime.end.p0(i64 4, ptr %14) #10
  call void @llvm.lifetime.end.p0(i64 1, ptr %13) #10
  call void @llvm.lifetime.end.p0(i64 1, ptr %12) #10
  call void @llvm.lifetime.end.p0(i64 8, ptr %11) #10
  call void @llvm.lifetime.end.p0(i64 8, ptr %10) #10
  call void @llvm.lifetime.end.p0(i64 4, ptr %9) #10
  call void @llvm.lifetime.end.p0(i64 4, ptr %8) #10
  call void @llvm.lifetime.end.p0(i64 4, ptr %7) #10
  call void @llvm.lifetime.end.p0(i64 64, ptr %6) #10
  call void @llvm.lifetime.end.p0(i64 8, ptr %5) #10
  ret void
}