; Function Attrs: nounwind uwtable
define internal fastcc void @cdxl_decode_ham6(ptr noundef readonly captures(none) %0, ptr noundef readonly captures(none) %1) unnamed_addr #1 {
  %3 = alloca [16 x i32], align 16
  %4 = load ptr, ptr %0, align 8, !tbaa !30
  call void @llvm.lifetime.start.p0(i64 64, ptr nonnull %3) #9
  %5 = getelementptr inbounds nuw i8, ptr %0, i64 56
  %6 = load ptr, ptr %5, align 8, !tbaa !46
  %7 = load ptr, ptr %1, align 8, !tbaa !47
  %8 = getelementptr inbounds nuw i8, ptr %0, i64 12
  %9 = load i32, ptr %8, align 4, !tbaa !35
  %10 = icmp eq i32 %9, 1
  %11 = getelementptr inbounds nuw i8, ptr %0, i64 32
  %12 = load i32, ptr %11, align 8, !tbaa !38
  br i1 %10, label %.preheader.i, label %.preheader26.i

.preheader26.i:                                   ; preds = %2
  %13 = icmp sgt i32 %12, 2
  br i1 %13, label %.lr.ph.i, label %import_palette.exit

.lr.ph.i:                                         ; preds = %.preheader26.i
  %14 = getelementptr inbounds nuw i8, ptr %0, i64 24
  %15 = load ptr, ptr %14, align 8, !tbaa !39
  %16 = udiv i32 %12, 3
  %17 = zext nneg i32 %16 to i64
  br label %41

.preheader.i:                                     ; preds = %2
  %18 = icmp sgt i32 %12, 1
  br i1 %18, label %.lr.ph30.i, label %import_palette.exit

.lr.ph30.i:                                       ; preds = %.preheader.i
  %19 = getelementptr inbounds nuw i8, ptr %0, i64 24
  %20 = load ptr, ptr %19, align 8, !tbaa !39
  %21 = lshr i32 %12, 1
  %22 = zext nneg i32 %21 to i64
  br label %23

23:                                               ; preds = %23, %.lr.ph30.i
  %indvars.iv33.i = phi i64 [ 0, %.lr.ph30.i ], [ %indvars.iv.next34.i, %23 ]
  %24 = shl nuw nsw i64 %indvars.iv33.i, 1
  %25 = getelementptr inbounds nuw i8, ptr %20, i64 %24
  %26 = load i16, ptr %25, align 1, !tbaa !34
  %27 = tail call i16 @llvm.bswap.i16(i16 %26)
  %28 = zext i16 %27 to i32
  %29 = lshr i32 %28, 8
  %30 = and i32 %29, 15
  %31 = lshr i32 %28, 4
  %32 = and i32 %31, 15
  %33 = and i32 %28, 15
  %34 = mul nuw nsw i32 %33, 17
  %35 = mul nuw nsw i32 %30, 1114112
  %36 = mul nuw nsw i32 %32, 4352
  %37 = or disjoint i32 %35, %36
  %38 = or disjoint i32 %37, %34
  %39 = or disjoint i32 %38, -16777216
  %40 = getelementptr inbounds nuw i32, ptr %3, i64 %indvars.iv33.i
  store i32 %39, ptr %40, align 4, !tbaa !34
  %indvars.iv.next34.i = add nuw nsw i64 %indvars.iv33.i, 1
  %exitcond63.not = icmp eq i64 %indvars.iv.next34.i, %22
  br i1 %exitcond63.not, label %import_palette.exit, label %23, !llvm.loop !49

41:                                               ; preds = %41, %.lr.ph.i
  %indvars.iv.i = phi i64 [ 0, %.lr.ph.i ], [ %indvars.iv.next.i, %41 ]
  %42 = mul nuw nsw i64 %indvars.iv.i, 3
  %43 = getelementptr inbounds nuw i8, ptr %15, i64 %42
  %44 = load i8, ptr %43, align 1, !tbaa !34
  %45 = zext i8 %44 to i32
  %46 = shl nuw nsw i32 %45, 16
  %47 = getelementptr inbounds nuw i8, ptr %43, i64 1
  %48 = load i8, ptr %47, align 1, !tbaa !34
  %49 = zext i8 %48 to i32
  %50 = shl nuw nsw i32 %49, 8
  %51 = getelementptr inbounds nuw i8, ptr %43, i64 2
  %52 = load i8, ptr %51, align 1, !tbaa !34
  %53 = zext i8 %52 to i32
  %54 = or disjoint i32 %46, %50
  %55 = or disjoint i32 %54, %53
  %56 = or disjoint i32 %55, -16777216
  %57 = getelementptr inbounds nuw i32, ptr %3, i64 %indvars.iv.i
  store i32 %56, ptr %57, align 4, !tbaa !34
  %indvars.iv.next.i = add nuw nsw i64 %indvars.iv.i, 1
  %exitcond.not = icmp eq i64 %indvars.iv.next.i, %17
  br i1 %exitcond.not, label %import_palette.exit, label %41, !llvm.loop !51

import_palette.exit:                              ; preds = %41, %23, %.preheader26.i, %.preheader.i
  %58 = getelementptr inbounds nuw i8, ptr %4, i64 112
  %59 = load i32, ptr %58, align 8, !tbaa !42
  %60 = sext i32 %59 to i64
  tail call fastcc void @import_format(ptr noundef nonnull %0, i64 noundef %60, ptr noundef %6)
  %61 = getelementptr inbounds nuw i8, ptr %4, i64 116
  %62 = load i32, ptr %61, align 4, !tbaa !44
  %63 = icmp sgt i32 %62, 0
  br i1 %63, label %.lr.ph59, label %._crit_edge60

.lr.ph59:                                         ; preds = %import_palette.exit
  %64 = load i32, ptr %3, align 16, !tbaa !48
  %65 = and i32 %64, 65280
  %66 = getelementptr inbounds nuw i8, ptr %1, i64 64
  %67 = load i32, ptr %58, align 8, !tbaa !42
  %68 = icmp sgt i32 %67, 0
  br i1 %68, label %.lr.ph59.split, label %._crit_edge60

.lr.ph59.split:                                   ; preds = %.lr.ph59, %._crit_edge
  %69 = phi i32 [ %103, %._crit_edge ], [ %62, %.lr.ph59 ]
  %70 = phi i32 [ %104, %._crit_edge ], [ %67, %.lr.ph59 ]
  %.058 = phi i32 [ %108, %._crit_edge ], [ 0, %.lr.ph59 ]
  %.04157 = phi ptr [ %107, %._crit_edge ], [ %7, %.lr.ph59 ]
  %.04256 = phi ptr [ %.143.lcssa, %._crit_edge ], [ %6, %.lr.ph59 ]
  %71 = icmp sgt i32 %70, 0
  br i1 %71, label %.lr.ph, label %._crit_edge

.lr.ph:                                           ; preds = %.lr.ph59.split, %89
  %indvars.iv = phi i64 [ %indvars.iv.next, %89 ], [ 0, %.lr.ph59.split ]
  %.04054 = phi i32 [ %.1, %89 ], [ %64, %.lr.ph59.split ]
  %.14353 = phi ptr [ %72, %89 ], [ %.04256, %.lr.ph59.split ]
  %.04452 = phi i32 [ %.145, %89 ], [ %64, %.lr.ph59.split ]
  %.04651 = phi i32 [ %.147, %89 ], [ %65, %.lr.ph59.split ]
  %72 = getelementptr inbounds nuw i8, ptr %.14353, i64 1
  %73 = load i8, ptr %.14353, align 1, !tbaa !34
  %74 = lshr i8 %73, 4
  %75 = and i8 %73, 15
  switch i8 %74, label %89 [
    i8 0, label %76
    i8 1, label %81
    i8 2, label %83
    i8 3, label %86
  ]

76:                                               ; preds = %.lr.ph
  %77 = zext nneg i8 %75 to i64
  %78 = getelementptr inbounds nuw [16 x i32], ptr %3, i64 0, i64 %77
  %79 = load i32, ptr %78, align 4, !tbaa !48
  %80 = and i32 %79, 65280
  br label %89

81:                                               ; preds = %.lr.ph
  %narrow49 = mul nuw i8 %75, 17
  %82 = zext i8 %narrow49 to i32
  br label %89

83:                                               ; preds = %.lr.ph
  %narrow48 = mul nuw i8 %75, 17
  %84 = zext i8 %narrow48 to i32
  %85 = shl nuw nsw i32 %84, 16
  br label %89

86:                                               ; preds = %.lr.ph
  %narrow = mul nuw i8 %75, 17
  %87 = zext i8 %narrow to i32
  %88 = shl nuw nsw i32 %87, 8
  br label %89

89:                                               ; preds = %.lr.ph, %76, %81, %83, %86
  %.147 = phi i32 [ %.04651, %.lr.ph ], [ %88, %86 ], [ %.04651, %83 ], [ %.04651, %81 ], [ %80, %76 ]
  %.145 = phi i32 [ %.04452, %.lr.ph ], [ %.04452, %86 ], [ %.04452, %83 ], [ %82, %81 ], [ %79, %76 ]
  %.1 = phi i32 [ %.04054, %.lr.ph ], [ %.04054, %86 ], [ %85, %83 ], [ %.04054, %81 ], [ %79, %76 ]
  %90 = or i32 %.1, %.147
  %91 = trunc i32 %.145 to i8
  %92 = mul nuw nsw i64 %indvars.iv, 3
  %93 = getelementptr inbounds nuw i8, ptr %.04157, i64 %92
  store i8 %91, ptr %93, align 1, !tbaa !34
  %94 = lshr exact i32 %.147, 8
  %95 = trunc nuw i32 %94 to i8
  %96 = getelementptr inbounds nuw i8, ptr %93, i64 1
  store i8 %95, ptr %96, align 1, !tbaa !34
  %97 = lshr i32 %90, 16
  %98 = trunc i32 %97 to i8
  %99 = getelementptr inbounds nuw i8, ptr %93, i64 2
  store i8 %98, ptr %99, align 1, !tbaa !34
  %indvars.iv.next = add nuw nsw i64 %indvars.iv, 1
  %100 = load i32, ptr %58, align 8, !tbaa !42
  %101 = sext i32 %100 to i64
  %102 = icmp slt i64 %indvars.iv.next, %101
  br i1 %102, label %.lr.ph, label %._crit_edge.loopexit, !llvm.loop !55

._crit_edge.loopexit:                             ; preds = %89
  %.pre = load i32, ptr %61, align 4, !tbaa !44
  br label %._crit_edge

._crit_edge:                                      ; preds = %._crit_edge.loopexit, %.lr.ph59.split
  %103 = phi i32 [ %69, %.lr.ph59.split ], [ %.pre, %._crit_edge.loopexit ]
  %104 = phi i32 [ %70, %.lr.ph59.split ], [ %100, %._crit_edge.loopexit ]
  %.143.lcssa = phi ptr [ %.04256, %.lr.ph59.split ], [ %72, %._crit_edge.loopexit ]
  %105 = load i32, ptr %66, align 8, !tbaa !48
  %106 = sext i32 %105 to i64
  %107 = getelementptr inbounds i8, ptr %.04157, i64 %106
  %108 = add nuw nsw i32 %.058, 1
  %109 = icmp slt i32 %108, %103
  br i1 %109, label %.lr.ph59.split, label %._crit_edge60, !llvm.loop !56

._crit_edge60:                                    ; preds = %._crit_edge, %.lr.ph59, %import_palette.exit
  call void @llvm.lifetime.end.p0(i64 64, ptr nonnull %3) #9
  ret void
}